target datalayout = "e-m:e-p270:32:32-p271:32:32-p272:64:64-i64:64-i128:128-f80:128-n8:16:32:64-S128"
target triple = "x86_64-pc-linux-gnu"

%class.dispatcher = type { i32, ptr, i64 }

; Function Attrs: mustprogress nounwind uwtable
define internal noundef i32 @_ZZN10duckdb_fmt2v68internal13safe_strerrorEiRPcmEN10dispatcher6handleES2_(ptr noundef nonnull align 8 dereferenceable(24) %0, ptr noundef %1) #0 align 2 {
  %3 = alloca i32, align 4
  %4 = alloca ptr, align 8
  %5 = alloca ptr, align 8
  store ptr %0, ptr %4, align 8, !tbaa !12
  store ptr %1, ptr %5, align 8, !tbaa !18
  %6 = load ptr, ptr %4, align 8
  %7 = load ptr, ptr %5, align 8, !tbaa !18
  %8 = getelementptr inbounds nuw %class.dispatcher, ptr %6, i32 0, i32 1
  %9 = load ptr, ptr %8, align 8, !tbaa !17
  %10 = load ptr, ptr %9, align 8, !tbaa !18
  %11 = icmp eq ptr %7, %10
  br i1 %11, label %12, label %22

12:                                               ; preds = %2
  %13 = getelementptr inbounds nuw %class.dispatcher, ptr %6, i32 0, i32 1
  %14 = load ptr, ptr %13, align 8, !tbaa !17
  %15 = load ptr, ptr %14, align 8, !tbaa !18
  %16 = call i64 @strlen(ptr noundef %15) #25
  %17 = getelementptr inbounds nuw %class.dispatcher, ptr %6, i32 0, i32 2
  %18 = load i64, ptr %17, align 8, !tbaa !16
  %19 = sub i64 %18, 1
  %20 = icmp eq i64 %16, %19
  br i1 %20, label %21, label %22

21:                                               ; preds = %12
  store i32 34, ptr %3, align 4
  br label %26

22:                                               ; preds = %12, %2
  %23 = load ptr, ptr %5, align 8, !tbaa !18
  %24 = getelementptr inbounds nuw %class.dispatcher, ptr %6, i32 0, i32 1
  %25 = load ptr, ptr %24, align 8, !tbaa !17
  store ptr %23, ptr %25, align 8, !tbaa !18
  store i32 0, ptr %3, align 4
  br label %26

26:                                               ; preds = %22, %21
  %27 = load i32, ptr %3, align 4
  ret i32 %27
}

; Function Attrs: noinline noreturn nounwind uwtable
define linkonce_odr hidden void @__clang_call_terminate(ptr noundef %0) #2 comdat {
  %2 = call ptr @__cxa_begin_catch(ptr %0) #20
  call void @_ZSt9terminatev() #21
  unreachable
}

; Function Attrs: mustprogress uwtable
define internal noundef i32 @_ZZN10duckdb_fmt2v68internal13safe_strerrorEiRPcmEN10dispatcher3runEv(ptr noundef nonnull align 8 dereferenceable(24) %0) #3 align 2 {
  %2 = alloca ptr, align 8
  store ptr %0, ptr %2, align 8, !tbaa !12
  %3 = load ptr, ptr %2, align 8
  %4 = getelementptr inbounds nuw %class.dispatcher, ptr %3, i32 0, i32 0
  %5 = load i32, ptr %4, align 8, !tbaa !14
  %6 = getelementptr inbounds nuw %class.dispatcher, ptr %3, i32 0, i32 1
  %7 = load ptr, ptr %6, align 8, !tbaa !17
  %8 = load ptr, ptr %7, align 8, !tbaa !18
  %9 = getelementptr inbounds nuw %class.dispatcher, ptr %3, i32 0, i32 2
  %10 = load i64, ptr %9, align 8, !tbaa !16
  %11 = call ptr @strerror_r(i32 noundef %5, ptr noundef %8, i64 noundef %10) #20
  %12 = call noundef i32 @_ZZN10duckdb_fmt2v68internal13safe_strerrorEiRPcmEN10dispatcher6handleES2_(ptr noundef nonnull align 8 dereferenceable(24) %3, ptr noundef %11)
  ret i32 %12
}

; Function Attrs: mustprogress nounwind uwtable
define internal void @_ZZN10duckdb_fmt2v68internal13safe_strerrorEiRPcmEN10dispatcherC2EiS3_m(ptr noundef nonnull align 8 dereferenceable(24) %0, i32 noundef %1, ptr noundef nonnull align 8 dereferenceable(8) %2, i64 noundef %3) unnamed_addr #0 align 2 {
  %5 = alloca ptr, align 8
  %6 = alloca i32, align 4
  %7 = alloca ptr, align 8
  %8 = alloca i64, align 8
  store ptr %0, ptr %5, align 8, !tbaa !12
  store i32 %1, ptr %6, align 4, !tbaa !3
  store ptr %2, ptr %7, align 8, !tbaa !7
  store i64 %3, ptr %8, align 8, !tbaa !10
  %9 = load ptr, ptr %5, align 8
  %10 = getelementptr inbounds nuw %class.dispatcher, ptr %9, i32 0, i32 0
  %11 = load i32, ptr %6, align 4, !tbaa !3
  store i32 %11, ptr %10, align 8, !tbaa !14
  %12 = getelementptr inbounds nuw %class.dispatcher, ptr %9, i32 0, i32 1
  %13 = load ptr, ptr %7, align 8, !tbaa !7
  store ptr %13, ptr %12, align 8, !tbaa !7
  %14 = getelementptr inbounds nuw %class.dispatcher, ptr %9, i32 0, i32 2
  %15 = load i64, ptr %8, align 8, !tbaa !10
  store i64 %15, ptr %14, align 8, !tbaa !16
  ret void
}

; Function Attrs: mustprogress nounwind uwtable
define noundef i32 @_ZN10duckdb_fmt2v68internal13safe_strerrorEiRPcm(i32 noundef %0, ptr noundef nonnull align 8 dereferenceable(8) %1, i64 noundef %2) #0 personality ptr @__gxx_personality_v0 {
  %4 = alloca i32, align 4
  %5 = alloca ptr, align 8
  %6 = alloca i64, align 8
  %7 = alloca %class.dispatcher, align 8
  store i32 %0, ptr %4, align 4, !tbaa !3
  store ptr %1, ptr %5, align 8, !tbaa !7
  store i64 %2, ptr %6, align 8, !tbaa !10
  call void @llvm.lifetime.start.p0(i64 24, ptr %7) #20
  %8 = load i32, ptr %4, align 4, !tbaa !3
  %9 = load ptr, ptr %5, align 8, !tbaa !7
  %10 = load i64, ptr %6, align 8, !tbaa !10
  invoke void @_ZZN10duckdb_fmt2v68internal13safe_strerrorEiRPcmEN10dispatcherC2EiS3_m(ptr noundef nonnull align 8 dereferenceable(24) %7, i32 noundef %8, ptr noundef nonnull align 8 dereferenceable(8) %9, i64 noundef %10)
          to label %11 unwind label %14

11:                                               ; preds = %3
  %12 = invoke noundef i32 @_ZZN10duckdb_fmt2v68internal13safe_strerrorEiRPcmEN10dispatcher3runEv(ptr noundef nonnull align 8 dereferenceable(24) %7)
          to label %13 unwind label %14

13:                                               ; preds = %11
  call void @llvm.lifetime.end.p0(i64 24, ptr %7) #20
  ret i32 %12

14:                                               ; preds = %11, %3
  %15 = landingpad { ptr, i32 }
          catch ptr null
  %16 = extractvalue { ptr, i32 } %15, 0
  call void @__clang_call_terminate(ptr %16) #21
  unreachable
}