; Function Attrs: mustprogress nounwind uwtable
define noundef range(i32 0, 35) i32 @_ZN10duckdb_fmt2v68internal13safe_strerrorEiRPcm(i32 noundef %0, ptr noundef nonnull align 8 captures(none) dereferenceable(8) %1, i64 noundef %2) local_unnamed_addr #0 personality ptr @__gxx_personality_v0 {
  %4 = load ptr, ptr %1, align 8, !tbaa !3
  %5 = tail call ptr @strerror_r(i32 noundef %0, ptr noundef %4, i64 noundef %2) #25
  %6 = load ptr, ptr %1, align 8, !tbaa !3
  %7 = icmp eq ptr %5, %6
  br i1 %7, label %8, label %12

8:                                                ; preds = %3
  %9 = tail call i64 @strlen(ptr noundef nonnull dereferenceable(1) %6) #26
  %10 = add i64 %2, -1
  %11 = icmp eq i64 %9, %10
  br i1 %11, label %_ZZN10duckdb_fmt2v68internal13safe_strerrorEiRPcmEN10dispatcher3runEv.exit, label %12

12:                                               ; preds = %8, %3
  store ptr %5, ptr %1, align 8, !tbaa !3
  br label %_ZZN10duckdb_fmt2v68internal13safe_strerrorEiRPcmEN10dispatcher3runEv.exit

_ZZN10duckdb_fmt2v68internal13safe_strerrorEiRPcmEN10dispatcher3runEv.exit: ; preds = %12, %8
  %.0.i.i = phi i32 [ 0, %12 ], [ 34, %8 ]
  ret i32 %.0.i.i
}